target datalayout = "e-m:e-p270:32:32-p271:32:32-p272:64:64-i64:64-i128:128-f80:128-n8:16:32:64-S128"
target triple = "x86_64-pc-linux-gnu"

%struct.AVRational = type { i32, i32 }
%struct.AVPacket = type { ptr, i64, i64, ptr, i32, i32, i32, ptr, i32, i64, i64, ptr, ptr, %struct.AVRational }
%struct.PacketListEntry = type { ptr, %struct.AVPacket }
%struct.PacketList = type { ptr, ptr }

; Function Attrs: nounwind uwtable
define i32 @avpriv_packet_list_get(ptr noundef %0, ptr noundef %1) #0 {
  %3 = alloca i32, align 4
  %4 = alloca ptr, align 8
  %5 = alloca ptr, align 8
  %6 = alloca ptr, align 8
  %7 = alloca i32, align 4
  store ptr %0, ptr %4, align 8, !tbaa !74
  store ptr %1, ptr %5, align 8, !tbaa !4
  call void @llvm.lifetime.start.p0(i64 8, ptr %6) #9
  %8 = load ptr, ptr %4, align 8, !tbaa !74
  %9 = getelementptr inbounds nuw %struct.PacketList, ptr %8, i32 0, i32 0
  %10 = load ptr, ptr %9, align 8, !tbaa !80
  store ptr %10, ptr %6, align 8, !tbaa !76
  %11 = load ptr, ptr %6, align 8, !tbaa !76
  %12 = icmp ne ptr %11, null
  br i1 %12, label %14, label %13

13:                                               ; preds = %2
  store i32 -11, ptr %3, align 4
  store i32 1, ptr %7, align 4
  br label %31

14:                                               ; preds = %2
  %15 = load ptr, ptr %5, align 8, !tbaa !4
  %16 = load ptr, ptr %6, align 8, !tbaa !76
  %17 = getelementptr inbounds nuw %struct.PacketListEntry, ptr %16, i32 0, i32 1
  call void @llvm.memcpy.p0.p0.i64(ptr align 8 %15, ptr align 8 %17, i64 104, i1 false), !tbaa.struct !72
  %18 = load ptr, ptr %6, align 8, !tbaa !76
  %19 = getelementptr inbounds nuw %struct.PacketListEntry, ptr %18, i32 0, i32 0
  %20 = load ptr, ptr %19, align 8, !tbaa !78
  %21 = load ptr, ptr %4, align 8, !tbaa !74
  %22 = getelementptr inbounds nuw %struct.PacketList, ptr %21, i32 0, i32 0
  store ptr %20, ptr %22, align 8, !tbaa !80
  %23 = load ptr, ptr %4, align 8, !tbaa !74
  %24 = getelementptr inbounds nuw %struct.PacketList, ptr %23, i32 0, i32 0
  %25 = load ptr, ptr %24, align 8, !tbaa !80
  %26 = icmp ne ptr %25, null
  br i1 %26, label %30, label %27

27:                                               ; preds = %14
  %28 = load ptr, ptr %4, align 8, !tbaa !74
  %29 = getelementptr inbounds nuw %struct.PacketList, ptr %28, i32 0, i32 1
  store ptr null, ptr %29, align 8, !tbaa !82
  br label %30

30:                                               ; preds = %27, %14
  call void @av_freep(ptr noundef %6)
  store i32 0, ptr %3, align 4
  store i32 1, ptr %7, align 4
  br label %31

31:                                               ; preds = %30, %13
  call void @llvm.lifetime.end.p0(i64 8, ptr %6) #9
  %32 = load i32, ptr %3, align 4
  ret i32 %32
}