; Function Attrs: nounwind uwtable
define range(i32 -11, 1) i32 @avpriv_packet_list_get(ptr noundef captures(none) %0, ptr noundef writeonly captures(none) %1) local_unnamed_addr #3 {
  %3 = alloca ptr, align 8
  call void @llvm.lifetime.start.p0(i64 8, ptr nonnull %3) #16
  %4 = load ptr, ptr %0, align 8, !tbaa !58
  store ptr %4, ptr %3, align 8, !tbaa !61
  %.not = icmp eq ptr %4, null
  br i1 %.not, label %11, label %5

5:                                                ; preds = %2
  %6 = getelementptr inbounds nuw i8, ptr %4, i64 8
  tail call void @llvm.memcpy.p0.p0.i64(ptr noundef nonnull align 8 dereferenceable(104) %1, ptr noundef nonnull align 8 dereferenceable(104) %6, i64 104, i1 false), !tbaa.struct !51
  %7 = load ptr, ptr %4, align 8, !tbaa !55
  store ptr %7, ptr %0, align 8, !tbaa !58
  %.not6 = icmp eq ptr %7, null
  br i1 %.not6, label %8, label %10

8:                                                ; preds = %5
  %9 = getelementptr inbounds nuw i8, ptr %0, i64 8
  store ptr null, ptr %9, align 8, !tbaa !60
  br label %10

10:                                               ; preds = %8, %5
  call void @av_freep(ptr noundef nonnull %3) #16
  br label %11

11:                                               ; preds = %2, %10
  %.0 = phi i32 [ 0, %10 ], [ -11, %2 ]
  call void @llvm.lifetime.end.p0(i64 8, ptr nonnull %3) #16
  ret i32 %.0
}